target datalayout = "e-m:e-p270:32:32-p271:32:32-p272:64:64-i64:64-i128:128-f80:128-n8:16:32:64-S128"
target triple = "x86_64-pc-linux-gnu"

%struct.Map_SuperLibStruct_t_ = type { ptr, ptr, i32, i32, i32, i32, i32, ptr, ptr, ptr, [6 x [2 x i32]], [2 x i32], ptr, %struct.Map_TimeStruct_t_, float, float, ptr, ptr, ptr, ptr }
%struct.Map_TimeStruct_t_ = type { float, float, float }
%struct.Map_SuperStruct_t_ = type { i32, i32, [4 x i8], i32, [6 x ptr], ptr, [2 x i32], [6 x %struct.Map_TimeStruct_t_], [6 x %struct.Map_TimeStruct_t_], %struct.Map_TimeStruct_t_, float, ptr, ptr }

@stdout = external global ptr, align 8
@.str.20 = private unnamed_addr constant [6 x i8] c"%6d  \00", align 1
@.str.21 = private unnamed_addr constant [4 x i8] c"%c \00", align 1
@.str.22 = private unnamed_addr constant [4 x i8] c"%6s\00", align 1
@.str.23 = private unnamed_addr constant [5 x i8] c" %6d\00", align 1
@.str.24 = private unnamed_addr constant [5 x i8] c"  %s\00", align 1
@.str.25 = private unnamed_addr constant [2 x i8] c"\0A\00", align 1
@.str.26 = private unnamed_addr constant [6 x i8] c"  %3d\00", align 1
@.str.27 = private unnamed_addr constant [8 x i8] c"  %6.2f\00", align 1
@.str.28 = private unnamed_addr constant [17 x i8] c"  (%4.2f, %4.2f)\00", align 1
@.str.29 = private unnamed_addr constant [14 x i8] c" (----, ----)\00", align 1
@.str.30 = private unnamed_addr constant [15 x i8] c" (%4.2f, ----)\00", align 1
@.str.31 = private unnamed_addr constant [15 x i8] c" (----, %4.2f)\00", align 1
@.str.32 = private unnamed_addr constant [16 x i8] c" (%4.2f, %4.2f)\00", align 1

; Function Attrs: nounwind uwtable
define void @Map_LibraryPrintTree(ptr noundef %0) #0 {
  %2 = alloca ptr, align 8
  %3 = alloca ptr, align 8
  %4 = alloca i32, align 4
  %5 = alloca i32, align 4
  store ptr %0, ptr %2, align 8, !tbaa !3
  call void @llvm.lifetime.start.p0(i64 8, ptr %3) #9
  call void @llvm.lifetime.start.p0(i64 4, ptr %4) #9
  call void @llvm.lifetime.start.p0(i64 4, ptr %5) #9
  %6 = load ptr, ptr %2, align 8, !tbaa !3
  %7 = getelementptr inbounds nuw %struct.Map_SuperLibStruct_t_, ptr %6, i32 0, i32 2
  %8 = load i32, ptr %7, align 8, !tbaa !48
  store i32 %8, ptr %4, align 4, !tbaa !10
  br label %9

9:                                                ; preds = %259, %1
  %10 = load i32, ptr %4, align 4, !tbaa !10
  %11 = icmp slt i32 %10, 20
  br i1 %11, label %12, label %262

12:                                               ; preds = %9
  %13 = load ptr, ptr %2, align 8, !tbaa !3
  %14 = getelementptr inbounds nuw %struct.Map_SuperLibStruct_t_, ptr %13, i32 0, i32 7
  %15 = load ptr, ptr %14, align 8, !tbaa !30
  %16 = load i32, ptr %4, align 4, !tbaa !10
  %17 = sext i32 %16 to i64
  %18 = getelementptr inbounds ptr, ptr %15, i64 %17
  %19 = load ptr, ptr %18, align 8, !tbaa !23
  store ptr %19, ptr %3, align 8, !tbaa !23
  %20 = load ptr, ptr %3, align 8, !tbaa !23
  %21 = getelementptr inbounds nuw %struct.Map_SuperStruct_t_, ptr %20, i32 0, i32 0
  %22 = load i32, ptr %21, align 8, !tbaa !24
  %23 = call i32 (ptr, ...) @printf(ptr noundef @.str.20, i32 noundef %22)
  %24 = load ptr, ptr %3, align 8, !tbaa !23
  %25 = getelementptr inbounds nuw %struct.Map_SuperStruct_t_, ptr %24, i32 0, i32 1
  %26 = load i32, ptr %25, align 4
  %27 = and i32 %26, 1
  %28 = icmp ne i32 %27, 0
  %29 = select i1 %28, i32 42, i32 32
  %30 = call i32 (ptr, ...) @printf(ptr noundef @.str.21, i32 noundef %29)
  %31 = load ptr, ptr %3, align 8, !tbaa !23
  %32 = getelementptr inbounds nuw %struct.Map_SuperStruct_t_, ptr %31, i32 0, i32 5
  %33 = load ptr, ptr %32, align 8, !tbaa !28
  %34 = call ptr @Mio_GateReadName(ptr noundef %33)
  %35 = call i32 (ptr, ...) @printf(ptr noundef @.str.22, ptr noundef %34)
  store i32 0, ptr %5, align 4, !tbaa !10
  br label %36

36:                                               ; preds = %54, %12
  %37 = load i32, ptr %5, align 4, !tbaa !10
  %38 = load ptr, ptr %3, align 8, !tbaa !23
  %39 = getelementptr inbounds nuw %struct.Map_SuperStruct_t_, ptr %38, i32 0, i32 1
  %40 = load i32, ptr %39, align 4
  %41 = lshr i32 %40, 2
  %42 = and i32 %41, 7
  %43 = icmp slt i32 %37, %42
  br i1 %43, label %44, label %57

44:                                               ; preds = %36
  %45 = load ptr, ptr %3, align 8, !tbaa !23
  %46 = getelementptr inbounds nuw %struct.Map_SuperStruct_t_, ptr %45, i32 0, i32 4
  %47 = load i32, ptr %5, align 4, !tbaa !10
  %48 = sext i32 %47 to i64
  %49 = getelementptr inbounds [6 x ptr], ptr %46, i64 0, i64 %48
  %50 = load ptr, ptr %49, align 8, !tbaa !23
  %51 = getelementptr inbounds nuw %struct.Map_SuperStruct_t_, ptr %50, i32 0, i32 0
  %52 = load i32, ptr %51, align 8, !tbaa !24
  %53 = call i32 (ptr, ...) @printf(ptr noundef @.str.23, i32 noundef %52)
  br label %54

54:                                               ; preds = %44
  %55 = load i32, ptr %5, align 4, !tbaa !10
  %56 = add nsw i32 %55, 1
  store i32 %56, ptr %5, align 4, !tbaa !10
  br label %36, !llvm.loop !89

57:                                               ; preds = %36
  %58 = load ptr, ptr %3, align 8, !tbaa !23
  %59 = getelementptr inbounds nuw %struct.Map_SuperStruct_t_, ptr %58, i32 0, i32 11
  %60 = load ptr, ptr %59, align 8, !tbaa !35
  %61 = call i32 (ptr, ...) @printf(ptr noundef @.str.24, ptr noundef %60)
  %62 = call i32 (ptr, ...) @printf(ptr noundef @.str.25)
  %63 = load ptr, ptr @stdout, align 8, !tbaa !54
  %64 = load ptr, ptr %3, align 8, !tbaa !23
  %65 = getelementptr inbounds nuw %struct.Map_SuperStruct_t_, ptr %64, i32 0, i32 6
  %66 = getelementptr inbounds [2 x i32], ptr %65, i64 0, i64 0
  call void @Extra_PrintBinary(ptr noundef %63, ptr noundef %66, i32 noundef 64)
  %67 = load ptr, ptr %3, align 8, !tbaa !23
  %68 = getelementptr inbounds nuw %struct.Map_SuperStruct_t_, ptr %67, i32 0, i32 1
  %69 = load i32, ptr %68, align 4
  %70 = lshr i32 %69, 5
  %71 = and i32 %70, 7
  %72 = call i32 (ptr, ...) @printf(ptr noundef @.str.26, i32 noundef %71)
  %73 = load ptr, ptr %3, align 8, !tbaa !23
  %74 = getelementptr inbounds nuw %struct.Map_SuperStruct_t_, ptr %73, i32 0, i32 10
  %75 = load float, ptr %74, align 4, !tbaa !77
  %76 = fpext float %75 to double
  %77 = call i32 (ptr, ...) @printf(ptr noundef @.str.27, double noundef %76)
  %78 = load ptr, ptr %3, align 8, !tbaa !23
  %79 = getelementptr inbounds nuw %struct.Map_SuperStruct_t_, ptr %78, i32 0, i32 9
  %80 = getelementptr inbounds nuw %struct.Map_TimeStruct_t_, ptr %79, i32 0, i32 0
  %81 = load float, ptr %80, align 8, !tbaa !74
  %82 = fpext float %81 to double
  %83 = load ptr, ptr %3, align 8, !tbaa !23
  %84 = getelementptr inbounds nuw %struct.Map_SuperStruct_t_, ptr %83, i32 0, i32 9
  %85 = getelementptr inbounds nuw %struct.Map_TimeStruct_t_, ptr %84, i32 0, i32 1
  %86 = load float, ptr %85, align 4, !tbaa !73
  %87 = fpext float %86 to double
  %88 = call i32 (ptr, ...) @printf(ptr noundef @.str.28, double noundef %82, double noundef %87)
  %89 = call i32 (ptr, ...) @printf(ptr noundef @.str.25)
  store i32 0, ptr %5, align 4, !tbaa !10
  br label %90

90:                                               ; preds = %254, %57
  %91 = load i32, ptr %5, align 4, !tbaa !10
  %92 = load ptr, ptr %2, align 8, !tbaa !3
  %93 = getelementptr inbounds nuw %struct.Map_SuperLibStruct_t_, ptr %92, i32 0, i32 2
  %94 = load i32, ptr %93, align 8, !tbaa !48
  %95 = icmp slt i32 %91, %94
  br i1 %95, label %96, label %257

96:                                               ; preds = %90
  %97 = load ptr, ptr %3, align 8, !tbaa !23
  %98 = getelementptr inbounds nuw %struct.Map_SuperStruct_t_, ptr %97, i32 0, i32 7
  %99 = load i32, ptr %5, align 4, !tbaa !10
  %100 = sext i32 %99 to i64
  %101 = getelementptr inbounds [6 x %struct.Map_TimeStruct_t_], ptr %98, i64 0, i64 %100
  %102 = getelementptr inbounds nuw %struct.Map_TimeStruct_t_, ptr %101, i32 0, i32 0
  %103 = load float, ptr %102, align 4, !tbaa !51
  %104 = fcmp olt float %103, 0.000000e+00
  br i1 %104, label %105, label %116

105:                                              ; preds = %96
  %106 = load ptr, ptr %3, align 8, !tbaa !23
  %107 = getelementptr inbounds nuw %struct.Map_SuperStruct_t_, ptr %106, i32 0, i32 7
  %108 = load i32, ptr %5, align 4, !tbaa !10
  %109 = sext i32 %108 to i64
  %110 = getelementptr inbounds [6 x %struct.Map_TimeStruct_t_], ptr %107, i64 0, i64 %109
  %111 = getelementptr inbounds nuw %struct.Map_TimeStruct_t_, ptr %110, i32 0, i32 1
  %112 = load float, ptr %111, align 4, !tbaa !50
  %113 = fcmp olt float %112, 0.000000e+00
  br i1 %113, label %114, label %116

114:                                              ; preds = %105
  %115 = call i32 (ptr, ...) @printf(ptr noundef @.str.29)
  br label %174

116:                                              ; preds = %105, %96
  %117 = load ptr, ptr %3, align 8, !tbaa !23
  %118 = getelementptr inbounds nuw %struct.Map_SuperStruct_t_, ptr %117, i32 0, i32 7
  %119 = load i32, ptr %5, align 4, !tbaa !10
  %120 = sext i32 %119 to i64
  %121 = getelementptr inbounds [6 x %struct.Map_TimeStruct_t_], ptr %118, i64 0, i64 %120
  %122 = getelementptr inbounds nuw %struct.Map_TimeStruct_t_, ptr %121, i32 0, i32 1
  %123 = load float, ptr %122, align 4, !tbaa !50
  %124 = fcmp olt float %123, 0.000000e+00
  br i1 %124, label %125, label %135

125:                                              ; preds = %116
  %126 = load ptr, ptr %3, align 8, !tbaa !23
  %127 = getelementptr inbounds nuw %struct.Map_SuperStruct_t_, ptr %126, i32 0, i32 7
  %128 = load i32, ptr %5, align 4, !tbaa !10
  %129 = sext i32 %128 to i64
  %130 = getelementptr inbounds [6 x %struct.Map_TimeStruct_t_], ptr %127, i64 0, i64 %129
  %131 = getelementptr inbounds nuw %struct.Map_TimeStruct_t_, ptr %130, i32 0, i32 0
  %132 = load float, ptr %131, align 4, !tbaa !51
  %133 = fpext float %132 to double
  %134 = call i32 (ptr, ...) @printf(ptr noundef @.str.30, double noundef %133)
  br label %173

135:                                              ; preds = %116
  %136 = load ptr, ptr %3, align 8, !tbaa !23
  %137 = getelementptr inbounds nuw %struct.Map_SuperStruct_t_, ptr %136, i32 0, i32 7
  %138 = load i32, ptr %5, align 4, !tbaa !10
  %139 = sext i32 %138 to i64
  %140 = getelementptr inbounds [6 x %struct.Map_TimeStruct_t_], ptr %137, i64 0, i64 %139
  %141 = getelementptr inbounds nuw %struct.Map_TimeStruct_t_, ptr %140, i32 0, i32 0
  %142 = load float, ptr %141, align 4, !tbaa !51
  %143 = fcmp olt float %142, 0.000000e+00
  br i1 %143, label %144, label %154

144:                                              ; preds = %135
  %145 = load ptr, ptr %3, align 8, !tbaa !23
  %146 = getelementptr inbounds nuw %struct.Map_SuperStruct_t_, ptr %145, i32 0, i32 7
  %147 = load i32, ptr %5, align 4, !tbaa !10
  %148 = sext i32 %147 to i64
  %149 = getelementptr inbounds [6 x %struct.Map_TimeStruct_t_], ptr %146, i64 0, i64 %148
  %150 = getelementptr inbounds nuw %struct.Map_TimeStruct_t_, ptr %149, i32 0, i32 1
  %151 = load float, ptr %150, align 4, !tbaa !50
  %152 = fpext float %151 to double
  %153 = call i32 (ptr, ...) @printf(ptr noundef @.str.31, double noundef %152)
  br label %172

154:                                              ; preds = %135
  %155 = load ptr, ptr %3, align 8, !tbaa !23
  %156 = getelementptr inbounds nuw %struct.Map_SuperStruct_t_, ptr %155, i32 0, i32 7
  %157 = load i32, ptr %5, align 4, !tbaa !10
  %158 = sext i32 %157 to i64
  %159 = getelementptr inbounds [6 x %struct.Map_TimeStruct_t_], ptr %156, i64 0, i64 %158
  %160 = getelementptr inbounds nuw %struct.Map_TimeStruct_t_, ptr %159, i32 0, i32 0
  %161 = load float, ptr %160, align 4, !tbaa !51
  %162 = fpext float %161 to double
  %163 = load ptr, ptr %3, align 8, !tbaa !23
  %164 = getelementptr inbounds nuw %struct.Map_SuperStruct_t_, ptr %163, i32 0, i32 7
  %165 = load i32, ptr %5, align 4, !tbaa !10
  %166 = sext i32 %165 to i64
  %167 = getelementptr inbounds [6 x %struct.Map_TimeStruct_t_], ptr %164, i64 0, i64 %166
  %168 = getelementptr inbounds nuw %struct.Map_TimeStruct_t_, ptr %167, i32 0, i32 1
  %169 = load float, ptr %168, align 4, !tbaa !50
  %170 = fpext float %169 to double
  %171 = call i32 (ptr, ...) @printf(ptr noundef @.str.32, double noundef %162, double noundef %170)
  br label %172

172:                                              ; preds = %154, %144
  br label %173

173:                                              ; preds = %172, %125
  br label %174

174:                                              ; preds = %173, %114
  %175 = load ptr, ptr %3, align 8, !tbaa !23
  %176 = getelementptr inbounds nuw %struct.Map_SuperStruct_t_, ptr %175, i32 0, i32 8
  %177 = load i32, ptr %5, align 4, !tbaa !10
  %178 = sext i32 %177 to i64
  %179 = getelementptr inbounds [6 x %struct.Map_TimeStruct_t_], ptr %176, i64 0, i64 %178
  %180 = getelementptr inbounds nuw %struct.Map_TimeStruct_t_, ptr %179, i32 0, i32 0
  %181 = load float, ptr %180, align 4, !tbaa !51
  %182 = fcmp olt float %181, 0.000000e+00
  br i1 %182, label %183, label %194

183:                                              ; preds = %174
  %184 = load ptr, ptr %3, align 8, !tbaa !23
  %185 = getelementptr inbounds nuw %struct.Map_SuperStruct_t_, ptr %184, i32 0, i32 8
  %186 = load i32, ptr %5, align 4, !tbaa !10
  %187 = sext i32 %186 to i64
  %188 = getelementptr inbounds [6 x %struct.Map_TimeStruct_t_], ptr %185, i64 0, i64 %187
  %189 = getelementptr inbounds nuw %struct.Map_TimeStruct_t_, ptr %188, i32 0, i32 1
  %190 = load float, ptr %189, align 4, !tbaa !50
  %191 = fcmp olt float %190, 0.000000e+00
  br i1 %191, label %192, label %194

192:                                              ; preds = %183
  %193 = call i32 (ptr, ...) @printf(ptr noundef @.str.29)
  br label %252

194:                                              ; preds = %183, %174
  %195 = load ptr, ptr %3, align 8, !tbaa !23
  %196 = getelementptr inbounds nuw %struct.Map_SuperStruct_t_, ptr %195, i32 0, i32 8
  %197 = load i32, ptr %5, align 4, !tbaa !10
  %198 = sext i32 %197 to i64
  %199 = getelementptr inbounds [6 x %struct.Map_TimeStruct_t_], ptr %196, i64 0, i64 %198
  %200 = getelementptr inbounds nuw %struct.Map_TimeStruct_t_, ptr %199, i32 0, i32 1
  %201 = load float, ptr %200, align 4, !tbaa !50
  %202 = fcmp olt float %201, 0.000000e+00
  br i1 %202, label %203, label %213

203:                                              ; preds = %194
  %204 = load ptr, ptr %3, align 8, !tbaa !23
  %205 = getelementptr inbounds nuw %struct.Map_SuperStruct_t_, ptr %204, i32 0, i32 8
  %206 = load i32, ptr %5, align 4, !tbaa !10
  %207 = sext i32 %206 to i64
  %208 = getelementptr inbounds [6 x %struct.Map_TimeStruct_t_], ptr %205, i64 0, i64 %207
  %209 = getelementptr inbounds nuw %struct.Map_TimeStruct_t_, ptr %208, i32 0, i32 0
  %210 = load float, ptr %209, align 4, !tbaa !51
  %211 = fpext float %210 to double
  %212 = call i32 (ptr, ...) @printf(ptr noundef @.str.30, double noundef %211)
  br label %251

213:                                              ; preds = %194
  %214 = load ptr, ptr %3, align 8, !tbaa !23
  %215 = getelementptr inbounds nuw %struct.Map_SuperStruct_t_, ptr %214, i32 0, i32 8
  %216 = load i32, ptr %5, align 4, !tbaa !10
  %217 = sext i32 %216 to i64
  %218 = getelementptr inbounds [6 x %struct.Map_TimeStruct_t_], ptr %215, i64 0, i64 %217
  %219 = getelementptr inbounds nuw %struct.Map_TimeStruct_t_, ptr %218, i32 0, i32 0
  %220 = load float, ptr %219, align 4, !tbaa !51
  %221 = fcmp olt float %220, 0.000000e+00
  br i1 %221, label %222, label %232

222:                                              ; preds = %213
  %223 = load ptr, ptr %3, align 8, !tbaa !23
  %224 = getelementptr inbounds nuw %struct.Map_SuperStruct_t_, ptr %223, i32 0, i32 8
  %225 = load i32, ptr %5, align 4, !tbaa !10
  %226 = sext i32 %225 to i64
  %227 = getelementptr inbounds [6 x %struct.Map_TimeStruct_t_], ptr %224, i64 0, i64 %226
  %228 = getelementptr inbounds nuw %struct.Map_TimeStruct_t_, ptr %227, i32 0, i32 1
  %229 = load float, ptr %228, align 4, !tbaa !50
  %230 = fpext float %229 to double
  %231 = call i32 (ptr, ...) @printf(ptr noundef @.str.31, double noundef %230)
  br label %250

232:                                              ; preds = %213
  %233 = load ptr, ptr %3, align 8, !tbaa !23
  %234 = getelementptr inbounds nuw %struct.Map_SuperStruct_t_, ptr %233, i32 0, i32 8
  %235 = load i32, ptr %5, align 4, !tbaa !10
  %236 = sext i32 %235 to i64
  %237 = getelementptr inbounds [6 x %struct.Map_TimeStruct_t_], ptr %234, i64 0, i64 %236
  %238 = getelementptr inbounds nuw %struct.Map_TimeStruct_t_, ptr %237, i32 0, i32 0
  %239 = load float, ptr %238, align 4, !tbaa !51
  %240 = fpext float %239 to double
  %241 = load ptr, ptr %3, align 8, !tbaa !23
  %242 = getelementptr inbounds nuw %struct.Map_SuperStruct_t_, ptr %241, i32 0, i32 8
  %243 = load i32, ptr %5, align 4, !tbaa !10
  %244 = sext i32 %243 to i64
  %245 = getelementptr inbounds [6 x %struct.Map_TimeStruct_t_], ptr %242, i64 0, i64 %244
  %246 = getelementptr inbounds nuw %struct.Map_TimeStruct_t_, ptr %245, i32 0, i32 1
  %247 = load float, ptr %246, align 4, !tbaa !50
  %248 = fpext float %247 to double
  %249 = call i32 (ptr, ...) @printf(ptr noundef @.str.32, double noundef %240, double noundef %248)
  br label %250

250:                                              ; preds = %232, %222
  br label %251

251:                                              ; preds = %250, %203
  br label %252

252:                                              ; preds = %251, %192
  %253 = call i32 (ptr, ...) @printf(ptr noundef @.str.25)
  br label %254

254:                                              ; preds = %252
  %255 = load i32, ptr %5, align 4, !tbaa !10
  %256 = add nsw i32 %255, 1
  store i32 %256, ptr %5, align 4, !tbaa !10
  br label %90, !llvm.loop !90

257:                                              ; preds = %90
  %258 = call i32 (ptr, ...) @printf(ptr noundef @.str.25)
  br label %259

259:                                              ; preds = %257
  %260 = load i32, ptr %4, align 4, !tbaa !10
  %261 = add nsw i32 %260, 1
  store i32 %261, ptr %4, align 4, !tbaa !10
  br label %9, !llvm.loop !91

262:                                              ; preds = %9
  call void @llvm.lifetime.end.p0(i64 4, ptr %5) #9
  call void @llvm.lifetime.end.p0(i64 4, ptr %4) #9
  call void @llvm.lifetime.end.p0(i64 8, ptr %3) #9
  ret void
}