; Function Attrs: nounwind uwtable
define void @Map_LibraryPrintTree(ptr noundef readonly captures(none) %0) local_unnamed_addr #0 {
  %2 = getelementptr inbounds nuw i8, ptr %0, i64 16
  %3 = load i32, ptr %2, align 8, !tbaa !40
  %4 = icmp slt i32 %3, 20
  br i1 %4, label %.lr.ph71, label %._crit_edge72

.lr.ph71:                                         ; preds = %1
  %5 = getelementptr inbounds nuw i8, ptr %0, i64 40
  %6 = sext i32 %3 to i64
  br label %7

7:                                                ; preds = %.lr.ph71, %._crit_edge68
  %indvars.iv78 = phi i64 [ %6, %.lr.ph71 ], [ %indvars.iv.next79, %._crit_edge68 ]
  %8 = load ptr, ptr %5, align 8, !tbaa !26
  %9 = getelementptr inbounds ptr, ptr %8, i64 %indvars.iv78
  %10 = load ptr, ptr %9, align 8, !tbaa !27
  %11 = load i32, ptr %10, align 8, !tbaa !19
  %12 = tail call i32 (ptr, ...) @printf(ptr noundef nonnull dereferenceable(1) @.str.20, i32 noundef %11)
  %13 = getelementptr inbounds nuw i8, ptr %10, i64 4
  %14 = load i32, ptr %13, align 4
  %15 = and i32 %14, 1
  %.not = icmp eq i32 %15, 0
  %16 = select i1 %.not, i32 32, i32 42
  %17 = tail call i32 (ptr, ...) @printf(ptr noundef nonnull dereferenceable(1) @.str.21, i32 noundef %16)
  %18 = getelementptr inbounds nuw i8, ptr %10, i64 64
  %19 = load ptr, ptr %18, align 8, !tbaa !23
  %20 = tail call ptr @Mio_GateReadName(ptr noundef %19) #16
  %21 = tail call i32 (ptr, ...) @printf(ptr noundef nonnull dereferenceable(1) @.str.22, ptr noundef %20)
  %22 = load i32, ptr %13, align 4
  %23 = and i32 %22, 28
  %.not73 = icmp eq i32 %23, 0
  br i1 %.not73, label %._crit_edge, label %.lr.ph

.lr.ph:                                           ; preds = %7
  %24 = getelementptr inbounds nuw i8, ptr %10, i64 16
  br label %25

25:                                               ; preds = %.lr.ph, %25
  %indvars.iv = phi i64 [ 0, %.lr.ph ], [ %indvars.iv.next, %25 ]
  %26 = getelementptr inbounds nuw [6 x ptr], ptr %24, i64 0, i64 %indvars.iv
  %27 = load ptr, ptr %26, align 8, !tbaa !27
  %28 = load i32, ptr %27, align 8, !tbaa !19
  %29 = tail call i32 (ptr, ...) @printf(ptr noundef nonnull dereferenceable(1) @.str.23, i32 noundef %28)
  %indvars.iv.next = add nuw nsw i64 %indvars.iv, 1
  %30 = load i32, ptr %13, align 4
  %31 = lshr i32 %30, 2
  %32 = and i32 %31, 7
  %33 = zext nneg i32 %32 to i64
  %34 = icmp samesign ult i64 %indvars.iv.next, %33
  br i1 %34, label %25, label %._crit_edge, !llvm.loop !70

._crit_edge:                                      ; preds = %25, %7
  %35 = getelementptr inbounds nuw i8, ptr %10, i64 240
  %36 = load ptr, ptr %35, align 8, !tbaa !32
  %37 = tail call i32 (ptr, ...) @printf(ptr noundef nonnull dereferenceable(1) @.str.24, ptr noundef %36)
  %putchar = tail call i32 @putchar(i32 10)
  %38 = load ptr, ptr @stdout, align 8, !tbaa !46
  %39 = getelementptr inbounds nuw i8, ptr %10, i64 72
  tail call void @Extra_PrintBinary(ptr noundef %38, ptr noundef nonnull %39, i32 noundef 64) #16
  %40 = load i32, ptr %13, align 4
  %41 = lshr i32 %40, 5
  %42 = and i32 %41, 7
  %43 = tail call i32 (ptr, ...) @printf(ptr noundef nonnull dereferenceable(1) @.str.26, i32 noundef %42)
  %44 = getelementptr inbounds nuw i8, ptr %10, i64 236
  %45 = load float, ptr %44, align 4, !tbaa !63
  %46 = fpext float %45 to double
  %47 = tail call i32 (ptr, ...) @printf(ptr noundef nonnull dereferenceable(1) @.str.27, double noundef %46)
  %48 = getelementptr inbounds nuw i8, ptr %10, i64 224
  %49 = load float, ptr %48, align 8, !tbaa !60
  %50 = fpext float %49 to double
  %51 = getelementptr inbounds nuw i8, ptr %10, i64 228
  %52 = load float, ptr %51, align 4, !tbaa !59
  %53 = fpext float %52 to double
  %54 = tail call i32 (ptr, ...) @printf(ptr noundef nonnull dereferenceable(1) @.str.28, double noundef %50, double noundef %53)
  %putchar58 = tail call i32 @putchar(i32 10)
  %55 = load i32, ptr %2, align 8, !tbaa !40
  %56 = icmp sgt i32 %55, 0
  br i1 %56, label %.lr.ph67, label %._crit_edge68

.lr.ph67:                                         ; preds = %._crit_edge
  %57 = getelementptr inbounds nuw i8, ptr %10, i64 80
  %58 = getelementptr inbounds nuw i8, ptr %10, i64 152
  br label %59

59:                                               ; preds = %.lr.ph67, %97
  %indvars.iv75 = phi i64 [ 0, %.lr.ph67 ], [ %indvars.iv.next76, %97 ]
  %60 = getelementptr inbounds nuw [6 x %struct.Map_TimeStruct_t_], ptr %57, i64 0, i64 %indvars.iv75
  %61 = load float, ptr %60, align 4, !tbaa !43
  %62 = fcmp olt float %61, 0.000000e+00
  %63 = getelementptr inbounds nuw i8, ptr %60, i64 4
  %64 = load float, ptr %63, align 4, !tbaa !42
  %65 = fcmp olt float %64, 0.000000e+00
  br i1 %62, label %66, label %.thread

66:                                               ; preds = %59
  br i1 %65, label %67, label %72

67:                                               ; preds = %66
  %68 = tail call i32 (ptr, ...) @printf(ptr noundef nonnull dereferenceable(1) @.str.29)
  br label %78

.thread:                                          ; preds = %59
  %69 = fpext float %61 to double
  br i1 %65, label %70, label %75

70:                                               ; preds = %.thread
  %71 = tail call i32 (ptr, ...) @printf(ptr noundef nonnull dereferenceable(1) @.str.30, double noundef %69)
  br label %78

72:                                               ; preds = %66
  %73 = fpext float %64 to double
  %74 = tail call i32 (ptr, ...) @printf(ptr noundef nonnull dereferenceable(1) @.str.31, double noundef %73)
  br label %78

75:                                               ; preds = %.thread
  %76 = fpext float %64 to double
  %77 = tail call i32 (ptr, ...) @printf(ptr noundef nonnull dereferenceable(1) @.str.32, double noundef %69, double noundef %76)
  br label %78

78:                                               ; preds = %70, %75, %72, %67
  %79 = getelementptr inbounds nuw [6 x %struct.Map_TimeStruct_t_], ptr %58, i64 0, i64 %indvars.iv75
  %80 = load float, ptr %79, align 4, !tbaa !43
  %81 = fcmp olt float %80, 0.000000e+00
  %82 = getelementptr inbounds nuw i8, ptr %79, i64 4
  %83 = load float, ptr %82, align 4, !tbaa !42
  %84 = fcmp olt float %83, 0.000000e+00
  br i1 %81, label %85, label %.thread62

85:                                               ; preds = %78
  br i1 %84, label %86, label %91

86:                                               ; preds = %85
  %87 = tail call i32 (ptr, ...) @printf(ptr noundef nonnull dereferenceable(1) @.str.29)
  br label %97

.thread62:                                        ; preds = %78
  %88 = fpext float %80 to double
  br i1 %84, label %89, label %94

89:                                               ; preds = %.thread62
  %90 = tail call i32 (ptr, ...) @printf(ptr noundef nonnull dereferenceable(1) @.str.30, double noundef %88)
  br label %97

91:                                               ; preds = %85
  %92 = fpext float %83 to double
  %93 = tail call i32 (ptr, ...) @printf(ptr noundef nonnull dereferenceable(1) @.str.31, double noundef %92)
  br label %97

94:                                               ; preds = %.thread62
  %95 = fpext float %83 to double
  %96 = tail call i32 (ptr, ...) @printf(ptr noundef nonnull dereferenceable(1) @.str.32, double noundef %88, double noundef %95)
  br label %97

97:                                               ; preds = %89, %94, %91, %86
  %putchar60 = tail call i32 @putchar(i32 10)
  %indvars.iv.next76 = add nuw nsw i64 %indvars.iv75, 1
  %98 = load i32, ptr %2, align 8, !tbaa !40
  %99 = sext i32 %98 to i64
  %100 = icmp slt i64 %indvars.iv.next76, %99
  br i1 %100, label %59, label %._crit_edge68, !llvm.loop !71

._crit_edge68:                                    ; preds = %97, %._crit_edge
  %putchar59 = tail call i32 @putchar(i32 10)
  %indvars.iv.next79 = add nsw i64 %indvars.iv78, 1
  %101 = and i64 %indvars.iv.next79, 4294967295
  %exitcond.not = icmp eq i64 %101, 20
  br i1 %exitcond.not, label %._crit_edge72, label %7, !llvm.loop !72

._crit_edge72:                                    ; preds = %._crit_edge68, %1
  ret void
}